target datalayout = "e-m:e-p270:32:32-p271:32:32-p272:64:64-i64:64-i128:128-f80:128-n8:16:32:64-S128"
target triple = "x86_64-pc-linux-gnu"

%struct.FFEBUR128State = type { i32, i32, i64, ptr }
%struct.FFEBUR128StateInternal = type { ptr, i64, i64, i64, ptr, i64, [5 x double], [5 x double], [5 x [5 x double]], ptr, ptr, i64, ptr, i64, ptr }

@histogram_energies = internal global [1000 x double] zeroinitializer, align 16
@histogram_energy_boundaries = internal global [1001 x double] zeroinitializer, align 16

; Function Attrs: nounwind uwtable
define internal double @ebur128_energy_to_loudness(double noundef %0) #0 {
  %2 = alloca double, align 8
  store double %0, ptr %2, align 8, !tbaa !38
  %3 = load double, ptr %2, align 8, !tbaa !38
  %4 = call nsz double @llvm.log10.f64(double %3)
  %5 = call nsz double @llvm.fmuladd.f64(double 1.000000e+01, double %4, double -6.910000e-01)
  ret double %5
}

; Function Attrs: nounwind uwtable
define internal i64 @find_histogram_index(double noundef %0) #0 {
  %2 = alloca double, align 8
  %3 = alloca i64, align 8
  %4 = alloca i64, align 8
  %5 = alloca i64, align 8
  store double %0, ptr %2, align 8, !tbaa !38
  call void @llvm.lifetime.start.p0(i64 8, ptr %3) #7
  store i64 0, ptr %3, align 8, !tbaa !8
  call void @llvm.lifetime.start.p0(i64 8, ptr %4) #7
  store i64 1000, ptr %4, align 8, !tbaa !8
  call void @llvm.lifetime.start.p0(i64 8, ptr %5) #7
  br label %6

6:                                                ; preds = %21, %1
  %7 = load i64, ptr %3, align 8, !tbaa !8
  %8 = load i64, ptr %4, align 8, !tbaa !8
  %9 = add i64 %7, %8
  %10 = udiv i64 %9, 2
  store i64 %10, ptr %5, align 8, !tbaa !8
  %11 = load double, ptr %2, align 8, !tbaa !38
  %12 = load i64, ptr %5, align 8, !tbaa !8
  %13 = getelementptr inbounds nuw [1001 x double], ptr @histogram_energy_boundaries, i64 0, i64 %12
  %14 = load double, ptr %13, align 8, !tbaa !38
  %15 = fcmp nsz oge double %11, %14
  br i1 %15, label %16, label %18

16:                                               ; preds = %6
  %17 = load i64, ptr %5, align 8, !tbaa !8
  store i64 %17, ptr %3, align 8, !tbaa !8
  br label %20

18:                                               ; preds = %6
  %19 = load i64, ptr %5, align 8, !tbaa !8
  store i64 %19, ptr %4, align 8, !tbaa !8
  br label %20

20:                                               ; preds = %18, %16
  br label %21

21:                                               ; preds = %20
  %22 = load i64, ptr %4, align 8, !tbaa !8
  %23 = load i64, ptr %3, align 8, !tbaa !8
  %24 = sub i64 %22, %23
  %25 = icmp ne i64 %24, 1
  br i1 %25, label %6, label %26, !llvm.loop !63

26:                                               ; preds = %21
  %27 = load i64, ptr %3, align 8, !tbaa !8
  call void @llvm.lifetime.end.p0(i64 8, ptr %5) #7
  call void @llvm.lifetime.end.p0(i64 8, ptr %4) #7
  call void @llvm.lifetime.end.p0(i64 8, ptr %3) #7
  ret i64 %27
}

; Function Attrs: nounwind uwtable
define i32 @ff_ebur128_loudness_range_multiple(ptr noundef %0, i64 noundef %1, ptr noundef %2) #0 {
  %4 = alloca i32, align 4
  %5 = alloca ptr, align 8
  %6 = alloca i64, align 8
  %7 = alloca ptr, align 8
  %8 = alloca i64, align 8
  %9 = alloca i64, align 8
  %10 = alloca i64, align 8
  %11 = alloca double, align 8
  %12 = alloca double, align 8
  %13 = alloca double, align 8
  %14 = alloca double, align 8
  %15 = alloca [1000 x i64], align 16
  %16 = alloca i64, align 8
  %17 = alloca i64, align 8
  %18 = alloca i64, align 8
  %19 = alloca i32, align 4
  store ptr %0, ptr %5, align 8, !tbaa !44
  store i64 %1, ptr %6, align 8, !tbaa !8
  store ptr %2, ptr %7, align 8, !tbaa !46
  call void @llvm.lifetime.start.p0(i64 8, ptr %8) #7
  call void @llvm.lifetime.start.p0(i64 8, ptr %9) #7
  call void @llvm.lifetime.start.p0(i64 8, ptr %10) #7
  call void @llvm.lifetime.start.p0(i64 8, ptr %11) #7
  call void @llvm.lifetime.start.p0(i64 8, ptr %12) #7
  call void @llvm.lifetime.start.p0(i64 8, ptr %13) #7
  call void @llvm.lifetime.start.p0(i64 8, ptr %14) #7
  call void @llvm.lifetime.start.p0(i64 8000, ptr %15) #7
  call void @llvm.memset.p0.i64(ptr align 16 %15, i8 0, i64 8000, i1 false)
  call void @llvm.lifetime.start.p0(i64 8, ptr %16) #7
  call void @llvm.lifetime.start.p0(i64 8, ptr %17) #7
  call void @llvm.lifetime.start.p0(i64 8, ptr %18) #7
  store i64 0, ptr %8, align 8, !tbaa !8
  br label %20

20:                                               ; preds = %42, %3
  %21 = load i64, ptr %8, align 8, !tbaa !8
  %22 = load i64, ptr %6, align 8, !tbaa !8
  %23 = icmp ult i64 %21, %22
  br i1 %23, label %24, label %45

24:                                               ; preds = %20
  %25 = load ptr, ptr %5, align 8, !tbaa !44
  %26 = load i64, ptr %8, align 8, !tbaa !8
  %27 = getelementptr inbounds nuw ptr, ptr %25, i64 %26
  %28 = load ptr, ptr %27, align 8, !tbaa !10
  %29 = icmp ne ptr %28, null
  br i1 %29, label %30, label %41

30:                                               ; preds = %24
  %31 = load ptr, ptr %5, align 8, !tbaa !44
  %32 = load i64, ptr %8, align 8, !tbaa !8
  %33 = getelementptr inbounds nuw ptr, ptr %31, i64 %32
  %34 = load ptr, ptr %33, align 8, !tbaa !10
  %35 = getelementptr inbounds nuw %struct.FFEBUR128State, ptr %34, i32 0, i32 0
  %36 = load i32, ptr %35, align 8, !tbaa !25
  %37 = and i32 %36, 11
  %38 = icmp ne i32 %37, 11
  br i1 %38, label %39, label %40

39:                                               ; preds = %30
  store i32 -22, ptr %4, align 4
  store i32 1, ptr %19, align 4
  br label %212

40:                                               ; preds = %30
  br label %41

41:                                               ; preds = %40, %24
  br label %42

42:                                               ; preds = %41
  %43 = load i64, ptr %8, align 8, !tbaa !8
  %44 = add i64 %43, 1
  store i64 %44, ptr %8, align 8, !tbaa !8
  br label %20, !llvm.loop !57

45:                                               ; preds = %20
  store i64 0, ptr %10, align 8, !tbaa !8
  store double 0.000000e+00, ptr %11, align 8, !tbaa !38
  store i64 0, ptr %8, align 8, !tbaa !8
  br label %46

46:                                               ; preds = %111, %45
  %47 = load i64, ptr %8, align 8, !tbaa !8
  %48 = load i64, ptr %6, align 8, !tbaa !8
  %49 = icmp ult i64 %47, %48
  br i1 %49, label %50, label %114

50:                                               ; preds = %46
  %51 = load ptr, ptr %5, align 8, !tbaa !44
  %52 = load i64, ptr %8, align 8, !tbaa !8
  %53 = getelementptr inbounds nuw ptr, ptr %51, i64 %52
  %54 = load ptr, ptr %53, align 8, !tbaa !10
  %55 = icmp ne ptr %54, null
  br i1 %55, label %57, label %56

56:                                               ; preds = %50
  br label %111

57:                                               ; preds = %50
  store i64 0, ptr %9, align 8, !tbaa !8
  br label %58

58:                                               ; preds = %107, %57
  %59 = load i64, ptr %9, align 8, !tbaa !8
  %60 = icmp ult i64 %59, 1000
  br i1 %60, label %61, label %110

61:                                               ; preds = %58
  %62 = load ptr, ptr %5, align 8, !tbaa !44
  %63 = load i64, ptr %8, align 8, !tbaa !8
  %64 = getelementptr inbounds nuw ptr, ptr %62, i64 %63
  %65 = load ptr, ptr %64, align 8, !tbaa !10
  %66 = getelementptr inbounds nuw %struct.FFEBUR128State, ptr %65, i32 0, i32 3
  %67 = load ptr, ptr %66, align 8, !tbaa !13
  %68 = getelementptr inbounds nuw %struct.FFEBUR128StateInternal, ptr %67, i32 0, i32 10
  %69 = load ptr, ptr %68, align 8, !tbaa !30
  %70 = load i64, ptr %9, align 8, !tbaa !8
  %71 = getelementptr inbounds nuw i64, ptr %69, i64 %70
  %72 = load i64, ptr %71, align 8, !tbaa !8
  %73 = load i64, ptr %9, align 8, !tbaa !8
  %74 = getelementptr inbounds nuw [1000 x i64], ptr %15, i64 0, i64 %73
  %75 = load i64, ptr %74, align 8, !tbaa !8
  %76 = add i64 %75, %72
  store i64 %76, ptr %74, align 8, !tbaa !8
  %77 = load ptr, ptr %5, align 8, !tbaa !44
  %78 = load i64, ptr %8, align 8, !tbaa !8
  %79 = getelementptr inbounds nuw ptr, ptr %77, i64 %78
  %80 = load ptr, ptr %79, align 8, !tbaa !10
  %81 = getelementptr inbounds nuw %struct.FFEBUR128State, ptr %80, i32 0, i32 3
  %82 = load ptr, ptr %81, align 8, !tbaa !13
  %83 = getelementptr inbounds nuw %struct.FFEBUR128StateInternal, ptr %82, i32 0, i32 10
  %84 = load ptr, ptr %83, align 8, !tbaa !30
  %85 = load i64, ptr %9, align 8, !tbaa !8
  %86 = getelementptr inbounds nuw i64, ptr %84, i64 %85
  %87 = load i64, ptr %86, align 8, !tbaa !8
  %88 = load i64, ptr %10, align 8, !tbaa !8
  %89 = add i64 %88, %87
  store i64 %89, ptr %10, align 8, !tbaa !8
  %90 = load ptr, ptr %5, align 8, !tbaa !44
  %91 = load i64, ptr %8, align 8, !tbaa !8
  %92 = getelementptr inbounds nuw ptr, ptr %90, i64 %91
  %93 = load ptr, ptr %92, align 8, !tbaa !10
  %94 = getelementptr inbounds nuw %struct.FFEBUR128State, ptr %93, i32 0, i32 3
  %95 = load ptr, ptr %94, align 8, !tbaa !13
  %96 = getelementptr inbounds nuw %struct.FFEBUR128StateInternal, ptr %95, i32 0, i32 10
  %97 = load ptr, ptr %96, align 8, !tbaa !30
  %98 = load i64, ptr %9, align 8, !tbaa !8
  %99 = getelementptr inbounds nuw i64, ptr %97, i64 %98
  %100 = load i64, ptr %99, align 8, !tbaa !8
  %101 = uitofp i64 %100 to double
  %102 = load i64, ptr %9, align 8, !tbaa !8
  %103 = getelementptr inbounds nuw [1000 x double], ptr @histogram_energies, i64 0, i64 %102
  %104 = load double, ptr %103, align 8, !tbaa !38
  %105 = load double, ptr %11, align 8, !tbaa !38
  %106 = call nsz double @llvm.fmuladd.f64(double %101, double %104, double %105)
  store double %106, ptr %11, align 8, !tbaa !38
  br label %107

107:                                              ; preds = %61
  %108 = load i64, ptr %9, align 8, !tbaa !8
  %109 = add i64 %108, 1
  store i64 %109, ptr %9, align 8, !tbaa !8
  br label %58, !llvm.loop !58

110:                                              ; preds = %58
  br label %111

111:                                              ; preds = %110, %56
  %112 = load i64, ptr %8, align 8, !tbaa !8
  %113 = add i64 %112, 1
  store i64 %113, ptr %8, align 8, !tbaa !8
  br label %46, !llvm.loop !59

114:                                              ; preds = %46
  %115 = load i64, ptr %10, align 8, !tbaa !8
  %116 = icmp ne i64 %115, 0
  br i1 %116, label %119, label %117

117:                                              ; preds = %114
  %118 = load ptr, ptr %7, align 8, !tbaa !46
  store double 0.000000e+00, ptr %118, align 8, !tbaa !38
  store i32 0, ptr %4, align 4
  store i32 1, ptr %19, align 4
  br label %212

119:                                              ; preds = %114
  %120 = load i64, ptr %10, align 8, !tbaa !8
  %121 = uitofp i64 %120 to double
  %122 = load double, ptr %11, align 8, !tbaa !38
  %123 = fdiv nsz double %122, %121
  store double %123, ptr %11, align 8, !tbaa !38
  %124 = call nsz double @llvm.pow.f64(double 1.000000e+01, double -2.000000e+00)
  %125 = load double, ptr %11, align 8, !tbaa !38
  %126 = fmul nsz double %124, %125
  store double %126, ptr %12, align 8, !tbaa !38
  %127 = load double, ptr %12, align 8, !tbaa !38
  %128 = load double, ptr @histogram_energy_boundaries, align 16, !tbaa !38
  %129 = fcmp nsz olt double %127, %128
  br i1 %129, label %130, label %131

130:                                              ; preds = %119
  store i64 0, ptr %18, align 8, !tbaa !8
  br label %143

131:                                              ; preds = %119
  %132 = load double, ptr %12, align 8, !tbaa !38
  %133 = call i64 @find_histogram_index(double noundef %132)
  store i64 %133, ptr %18, align 8, !tbaa !8
  %134 = load double, ptr %12, align 8, !tbaa !38
  %135 = load i64, ptr %18, align 8, !tbaa !8
  %136 = getelementptr inbounds nuw [1000 x double], ptr @histogram_energies, i64 0, i64 %135
  %137 = load double, ptr %136, align 8, !tbaa !38
  %138 = fcmp nsz ogt double %134, %137
  br i1 %138, label %139, label %142

139:                                              ; preds = %131
  %140 = load i64, ptr %18, align 8, !tbaa !8
  %141 = add i64 %140, 1
  store i64 %141, ptr %18, align 8, !tbaa !8
  br label %142

142:                                              ; preds = %139, %131
  br label %143

143:                                              ; preds = %142, %130
  store i64 0, ptr %10, align 8, !tbaa !8
  %144 = load i64, ptr %18, align 8, !tbaa !8
  store i64 %144, ptr %9, align 8, !tbaa !8
  br label %145

145:                                              ; preds = %154, %143
  %146 = load i64, ptr %9, align 8, !tbaa !8
  %147 = icmp ult i64 %146, 1000
  br i1 %147, label %148, label %157

148:                                              ; preds = %145
  %149 = load i64, ptr %9, align 8, !tbaa !8
  %150 = getelementptr inbounds nuw [1000 x i64], ptr %15, i64 0, i64 %149
  %151 = load i64, ptr %150, align 8, !tbaa !8
  %152 = load i64, ptr %10, align 8, !tbaa !8
  %153 = add i64 %152, %151
  store i64 %153, ptr %10, align 8, !tbaa !8
  br label %154

154:                                              ; preds = %148
  %155 = load i64, ptr %9, align 8, !tbaa !8
  %156 = add i64 %155, 1
  store i64 %156, ptr %9, align 8, !tbaa !8
  br label %145, !llvm.loop !60

157:                                              ; preds = %145
  %158 = load i64, ptr %10, align 8, !tbaa !8
  %159 = icmp ne i64 %158, 0
  br i1 %159, label %162, label %160

160:                                              ; preds = %157
  %161 = load ptr, ptr %7, align 8, !tbaa !46
  store double 0.000000e+00, ptr %161, align 8, !tbaa !38
  store i32 0, ptr %4, align 4
  store i32 1, ptr %19, align 4
  br label %212

162:                                              ; preds = %157
  %163 = load i64, ptr %10, align 8, !tbaa !8
  %164 = sub i64 %163, 1
  %165 = uitofp i64 %164 to double
  %166 = call nsz double @llvm.fmuladd.f64(double %165, double 1.000000e-01, double 5.000000e-01)
  %167 = fptoui double %166 to i64
  store i64 %167, ptr %16, align 8, !tbaa !8
  %168 = load i64, ptr %10, align 8, !tbaa !8
  %169 = sub i64 %168, 1
  %170 = uitofp i64 %169 to double
  %171 = call nsz double @llvm.fmuladd.f64(double %170, double 0x3FEE666666666666, double 5.000000e-01)
  %172 = fptoui double %171 to i64
  store i64 %172, ptr %17, align 8, !tbaa !8
  store i64 0, ptr %10, align 8, !tbaa !8
  %173 = load i64, ptr %18, align 8, !tbaa !8
  store i64 %173, ptr %9, align 8, !tbaa !8
  br label %174

174:                                              ; preds = %178, %162
  %175 = load i64, ptr %10, align 8, !tbaa !8
  %176 = load i64, ptr %16, align 8, !tbaa !8
  %177 = icmp ule i64 %175, %176
  br i1 %177, label %178, label %185

178:                                              ; preds = %174
  %179 = load i64, ptr %9, align 8, !tbaa !8
  %180 = add i64 %179, 1
  store i64 %180, ptr %9, align 8, !tbaa !8
  %181 = getelementptr inbounds nuw [1000 x i64], ptr %15, i64 0, i64 %179
  %182 = load i64, ptr %181, align 8, !tbaa !8
  %183 = load i64, ptr %10, align 8, !tbaa !8
  %184 = add i64 %183, %182
  store i64 %184, ptr %10, align 8, !tbaa !8
  br label %174, !llvm.loop !61

185:                                              ; preds = %174
  %186 = load i64, ptr %9, align 8, !tbaa !8
  %187 = sub i64 %186, 1
  %188 = getelementptr inbounds nuw [1000 x double], ptr @histogram_energies, i64 0, i64 %187
  %189 = load double, ptr %188, align 8, !tbaa !38
  store double %189, ptr %14, align 8, !tbaa !38
  br label %190

190:                                              ; preds = %194, %185
  %191 = load i64, ptr %10, align 8, !tbaa !8
  %192 = load i64, ptr %17, align 8, !tbaa !8
  %193 = icmp ule i64 %191, %192
  br i1 %193, label %194, label %201

194:                                              ; preds = %190
  %195 = load i64, ptr %9, align 8, !tbaa !8
  %196 = add i64 %195, 1
  store i64 %196, ptr %9, align 8, !tbaa !8
  %197 = getelementptr inbounds nuw [1000 x i64], ptr %15, i64 0, i64 %195
  %198 = load i64, ptr %197, align 8, !tbaa !8
  %199 = load i64, ptr %10, align 8, !tbaa !8
  %200 = add i64 %199, %198
  store i64 %200, ptr %10, align 8, !tbaa !8
  br label %190, !llvm.loop !62

201:                                              ; preds = %190
  %202 = load i64, ptr %9, align 8, !tbaa !8
  %203 = sub i64 %202, 1
  %204 = getelementptr inbounds nuw [1000 x double], ptr @histogram_energies, i64 0, i64 %203
  %205 = load double, ptr %204, align 8, !tbaa !38
  store double %205, ptr %13, align 8, !tbaa !38
  %206 = load double, ptr %13, align 8, !tbaa !38
  %207 = call nsz double @ebur128_energy_to_loudness(double noundef %206)
  %208 = load double, ptr %14, align 8, !tbaa !38
  %209 = call nsz double @ebur128_energy_to_loudness(double noundef %208)
  %210 = fsub nsz double %207, %209
  %211 = load ptr, ptr %7, align 8, !tbaa !46
  store double %210, ptr %211, align 8, !tbaa !38
  store i32 0, ptr %4, align 4
  store i32 1, ptr %19, align 4
  br label %212

212:                                              ; preds = %201, %160, %117, %39
  call void @llvm.lifetime.end.p0(i64 8, ptr %18) #7
  call void @llvm.lifetime.end.p0(i64 8, ptr %17) #7
  call void @llvm.lifetime.end.p0(i64 8, ptr %16) #7
  call void @llvm.lifetime.end.p0(i64 8000, ptr %15) #7
  call void @llvm.lifetime.end.p0(i64 8, ptr %14) #7
  call void @llvm.lifetime.end.p0(i64 8, ptr %13) #7
  call void @llvm.lifetime.end.p0(i64 8, ptr %12) #7
  call void @llvm.lifetime.end.p0(i64 8, ptr %11) #7
  call void @llvm.lifetime.end.p0(i64 8, ptr %10) #7
  call void @llvm.lifetime.end.p0(i64 8, ptr %9) #7
  call void @llvm.lifetime.end.p0(i64 8, ptr %8) #7
  %213 = load i32, ptr %4, align 4
  ret i32 %213
}