; Function Attrs: nofree norecurse nosync nounwind memory(read, argmem: readwrite, inaccessiblemem: none) uwtable
define range(i32 -22, 1) i32 @ff_ebur128_loudness_range_multiple(ptr noundef readonly captures(none) %0, i64 noundef %1, ptr noundef writeonly captures(none) %2) local_unnamed_addr #6 {
  %4 = alloca [1000 x i64], align 16
  call void @llvm.lifetime.start.p0(i64 8000, ptr nonnull %4) #11
  call void @llvm.memset.p0.i64(ptr noundef nonnull align 16 dereferenceable(8000) %4, i8 0, i64 8000, i1 false)
  %.not107 = icmp eq i64 %1, 0
  br i1 %.not107, label %.loopexit82.sink.split, label %.lr.ph

.lr.ph:                                           ; preds = %3, %10
  %.06183 = phi i64 [ %11, %10 ], [ 0, %3 ]
  %5 = getelementptr inbounds nuw ptr, ptr %0, i64 %.06183
  %6 = load ptr, ptr %5, align 8, !tbaa !39
  %.not78 = icmp eq ptr %6, null
  br i1 %.not78, label %10, label %7

7:                                                ; preds = %.lr.ph
  %8 = load i32, ptr %6, align 8, !tbaa !25
  %9 = and i32 %8, 11
  %.not79 = icmp eq i32 %9, 11
  br i1 %.not79, label %10, label %.loopexit82

10:                                               ; preds = %.lr.ph, %7
  %11 = add nuw i64 %.06183, 1
  %exitcond.not = icmp eq i64 %11, %1
  br i1 %exitcond.not, label %.lr.ph90, label %.lr.ph, !llvm.loop !52

.lr.ph90:                                         ; preds = %10, %.loopexit
  %.189 = phi i64 [ %30, %.loopexit ], [ 0, %10 ]
  %.06488 = phi i64 [ %.165, %.loopexit ], [ 0, %10 ]
  %.06887 = phi double [ %.169, %.loopexit ], [ 0.000000e+00, %10 ]
  %12 = getelementptr inbounds nuw ptr, ptr %0, i64 %.189
  %13 = load ptr, ptr %12, align 8, !tbaa !39
  %.not77 = icmp eq ptr %13, null
  br i1 %.not77, label %.loopexit, label %.preheader80

.preheader80:                                     ; preds = %.lr.ph90
  %14 = getelementptr inbounds nuw i8, ptr %13, i64 16
  %15 = load ptr, ptr %14, align 8, !tbaa !4
  %16 = getelementptr inbounds nuw i8, ptr %15, i64 336
  %17 = load ptr, ptr %16, align 8, !tbaa !32
  br label %18

18:                                               ; preds = %.preheader80, %18
  %.06286 = phi i64 [ 0, %.preheader80 ], [ %29, %18 ]
  %.26685 = phi i64 [ %.06488, %.preheader80 ], [ %24, %18 ]
  %.27084 = phi double [ %.06887, %.preheader80 ], [ %28, %18 ]
  %19 = getelementptr inbounds nuw i64, ptr %17, i64 %.06286
  %20 = load i64, ptr %19, align 8, !tbaa !48
  %21 = getelementptr inbounds nuw [1000 x i64], ptr %4, i64 0, i64 %.06286
  %22 = load i64, ptr %21, align 8, !tbaa !48
  %23 = add i64 %22, %20
  store i64 %23, ptr %21, align 8, !tbaa !48
  %24 = add i64 %20, %.26685
  %25 = uitofp i64 %20 to double
  %26 = getelementptr inbounds nuw [1000 x double], ptr @histogram_energies, i64 0, i64 %.06286
  %27 = load double, ptr %26, align 8, !tbaa !29
  %28 = tail call nsz double @llvm.fmuladd.f64(double %25, double %27, double %.27084)
  %29 = add nuw nsw i64 %.06286, 1
  %exitcond113.not = icmp eq i64 %29, 1000
  br i1 %exitcond113.not, label %.loopexit, label %18, !llvm.loop !53

.loopexit:                                        ; preds = %18, %.lr.ph90
  %.169 = phi nsz double [ %.06887, %.lr.ph90 ], [ %28, %18 ]
  %.165 = phi i64 [ %.06488, %.lr.ph90 ], [ %24, %18 ]
  %30 = add nuw i64 %.189, 1
  %exitcond114.not = icmp eq i64 %30, %1
  br i1 %exitcond114.not, label %._crit_edge, label %.lr.ph90, !llvm.loop !54

._crit_edge:                                      ; preds = %.loopexit
  %.not = icmp eq i64 %.165, 0
  br i1 %.not, label %.loopexit82.sink.split, label %31

31:                                               ; preds = %._crit_edge
  %32 = uitofp i64 %.165 to double
  %33 = fdiv nsz double %.169, %32
  %34 = fmul nsz double %33, 1.000000e-02
  %35 = load double, ptr @histogram_energy_boundaries, align 16, !tbaa !29
  %36 = fcmp nsz olt double %34, %35
  br i1 %36, label %.lr.ph95.preheader, label %.preheader

.preheader:                                       ; preds = %31, %.preheader
  %.08.i = phi i64 [ %..08.i, %.preheader ], [ 1000, %31 ]
  %.0.i = phi i64 [ %.0..i, %.preheader ], [ 0, %31 ]
  %37 = add nuw i64 %.0.i, %.08.i
  %38 = lshr i64 %37, 1
  %39 = getelementptr inbounds nuw [1001 x double], ptr @histogram_energy_boundaries, i64 0, i64 %38
  %40 = load double, ptr %39, align 8, !tbaa !29
  %41 = fcmp nsz ult double %34, %40
  %..08.i = select i1 %41, i64 %38, i64 %.08.i
  %.0..i = select i1 %41, i64 %.0.i, i64 %38
  %42 = sub nsw i64 %..08.i, %.0..i
  %.not.i = icmp eq i64 %42, 1
  br i1 %.not.i, label %find_histogram_index.exit, label %.preheader, !llvm.loop !47

find_histogram_index.exit:                        ; preds = %.preheader
  %43 = getelementptr inbounds nuw [1000 x double], ptr @histogram_energies, i64 0, i64 %.0..i
  %44 = load double, ptr %43, align 8, !tbaa !29
  %45 = fcmp nsz ogt double %34, %44
  %46 = zext i1 %45 to i64
  %.0 = add nuw i64 %.0..i, %46
  %47 = icmp ult i64 %.0, 1000
  br i1 %47, label %.lr.ph95.preheader, label %.loopexit82.sink.split

.lr.ph95.preheader:                               ; preds = %31, %find_histogram_index.exit
  %.0121 = phi i64 [ %.0, %find_histogram_index.exit ], [ 0, %31 ]
  br label %.lr.ph95

.lr.ph95:                                         ; preds = %.lr.ph95.preheader, %.lr.ph95
  %.16393 = phi i64 [ %51, %.lr.ph95 ], [ %.0121, %.lr.ph95.preheader ]
  %.36792 = phi i64 [ %50, %.lr.ph95 ], [ 0, %.lr.ph95.preheader ]
  %48 = getelementptr inbounds nuw [1000 x i64], ptr %4, i64 0, i64 %.16393
  %49 = load i64, ptr %48, align 8, !tbaa !48
  %50 = add i64 %49, %.36792
  %51 = add nuw i64 %.16393, 1
  %exitcond115.not = icmp eq i64 %51, 1000
  br i1 %exitcond115.not, label %._crit_edge96, label %.lr.ph95, !llvm.loop !55

._crit_edge96:                                    ; preds = %.lr.ph95
  %.not74 = icmp eq i64 %50, 0
  br i1 %.not74, label %.loopexit82.sink.split, label %52

52:                                               ; preds = %._crit_edge96
  %53 = add i64 %50, -1
  %54 = uitofp i64 %53 to double
  %55 = tail call nsz double @llvm.fmuladd.f64(double %54, double 1.000000e-01, double 5.000000e-01)
  %56 = fptoui double %55 to i64
  br label %57

57:                                               ; preds = %52, %57
  %.299 = phi i64 [ %.0121, %52 ], [ %58, %57 ]
  %.498 = phi i64 [ 0, %52 ], [ %61, %57 ]
  %58 = add i64 %.299, 1
  %59 = getelementptr inbounds nuw [1000 x i64], ptr %4, i64 0, i64 %.299
  %60 = load i64, ptr %59, align 8, !tbaa !48
  %61 = add i64 %60, %.498
  %.not75 = icmp ugt i64 %61, %56
  br i1 %.not75, label %62, label %57, !llvm.loop !56

62:                                               ; preds = %57
  %63 = tail call nsz double @llvm.fmuladd.f64(double %54, double 0x3FEE666666666666, double 5.000000e-01)
  %64 = fptoui double %63 to i64
  %65 = getelementptr inbounds nuw [1000 x double], ptr @histogram_energies, i64 0, i64 %.299
  %66 = load double, ptr %65, align 8, !tbaa !29
  %.not76100 = icmp ugt i64 %61, %64
  br i1 %.not76100, label %._crit_edge105, label %.lr.ph104

.lr.ph104:                                        ; preds = %62, %.lr.ph104
  %.3102 = phi i64 [ %67, %.lr.ph104 ], [ %58, %62 ]
  %.5101 = phi i64 [ %70, %.lr.ph104 ], [ %61, %62 ]
  %67 = add i64 %.3102, 1
  %68 = getelementptr inbounds nuw [1000 x i64], ptr %4, i64 0, i64 %.3102
  %69 = load i64, ptr %68, align 8, !tbaa !48
  %70 = add i64 %69, %.5101
  %.not76 = icmp ugt i64 %70, %64
  br i1 %.not76, label %._crit_edge105.loopexit, label %.lr.ph104, !llvm.loop !57

._crit_edge105.loopexit:                          ; preds = %.lr.ph104
  %.phi.trans.insert = getelementptr inbounds nuw [1000 x double], ptr @histogram_energies, i64 0, i64 %.3102
  %.pre = load double, ptr %.phi.trans.insert, align 8, !tbaa !29
  br label %._crit_edge105

._crit_edge105:                                   ; preds = %._crit_edge105.loopexit, %62
  %71 = phi double [ %66, %62 ], [ %.pre, %._crit_edge105.loopexit ]
  %72 = tail call nsz double @llvm.log10.f64(double %71)
  %73 = tail call nsz noundef double @llvm.fmuladd.f64(double %72, double 1.000000e+01, double -6.910000e-01)
  %74 = tail call nsz double @llvm.log10.f64(double %66)
  %75 = tail call nsz noundef double @llvm.fmuladd.f64(double %74, double 1.000000e+01, double -6.910000e-01)
  %76 = fsub nsz double %73, %75
  br label %.loopexit82.sink.split

.loopexit82.sink.split:                           ; preds = %._crit_edge96, %find_histogram_index.exit, %._crit_edge, %3, %._crit_edge105
  %.sink = phi double [ %76, %._crit_edge105 ], [ 0.000000e+00, %3 ], [ 0.000000e+00, %._crit_edge ], [ 0.000000e+00, %find_histogram_index.exit ], [ 0.000000e+00, %._crit_edge96 ]
  store double %.sink, ptr %2, align 8, !tbaa !29
  br label %.loopexit82

.loopexit82:                                      ; preds = %7, %.loopexit82.sink.split
  %.060 = phi i32 [ 0, %.loopexit82.sink.split ], [ -22, %7 ]
  call void @llvm.lifetime.end.p0(i64 8000, ptr nonnull %4) #11
  ret i32 %.060
}